target datalayout = "e-m:e-p270:32:32-p271:32:32-p272:64:64-i64:64-i128:128-f80:128-n8:16:32:64-S128"
target triple = "x86_64-pc-linux-gnu"

%"class.std::__cxx11::basic_string" = type { %"struct.std::__cxx11::basic_string<char>::_Alloc_hider", i64, %union.anon }
%"struct.std::__cxx11::basic_string<char>::_Alloc_hider" = type { ptr }
%union.anon = type { i64, [8 x i8] }
%"class.zxing::Ref" = type { ptr }

@.str.11 = private unnamed_addr constant [21 x i8] c"basic_string::append\00", align 1

; Function Attrs: mustprogress nounwind uwtable
define linkonce_odr hidden noundef i64 @_ZNKSt15__new_allocatorIcE11_M_max_sizeEv(ptr noundef nonnull align 1 dereferenceable(1) %0) #1 comdat align 2 {
  %2 = alloca ptr, align 8
  store ptr %0, ptr %2, align 8, !tbaa !100
  ret i64 9223372036854775807
}

; Function Attrs: mustprogress nounwind uwtable
define linkonce_odr hidden noundef i64 @_ZNKSt15__new_allocatorIcE8max_sizeEv(ptr noundef nonnull align 1 dereferenceable(1) %0) #1 comdat align 2 {
  %2 = alloca ptr, align 8
  store ptr %0, ptr %2, align 8, !tbaa !100
  %3 = load ptr, ptr %2, align 8
  %4 = call noundef i64 @_ZNKSt15__new_allocatorIcE11_M_max_sizeEv(ptr noundef nonnull align 1 dereferenceable(1) %3) #15
  ret i64 %4
}

; Function Attrs: mustprogress nounwind uwtable
define linkonce_odr hidden noundef i64 @_ZNSt16allocator_traitsISaIcEE8max_sizeERKS0_(ptr noundef nonnull align 1 dereferenceable(1) %0) #1 comdat align 2 {
  %2 = alloca ptr, align 8
  store ptr %0, ptr %2, align 8, !tbaa !98
  %3 = load ptr, ptr %2, align 8, !tbaa !98
  %4 = call noundef i64 @_ZNKSt15__new_allocatorIcE8max_sizeEv(ptr noundef nonnull align 1 dereferenceable(1) %3) #15
  ret i64 %4
}

; Function Attrs: mustprogress nounwind uwtable
define available_externally noundef nonnull align 1 dereferenceable(1) ptr @_ZNKSt7__cxx1112basic_stringIcSt11char_traitsIcESaIcEE16_M_get_allocatorEv(ptr noundef nonnull align 8 dereferenceable(32) %0) #1 align 2 {
  %2 = alloca ptr, align 8
  store ptr %0, ptr %2, align 8, !tbaa !8
  %3 = load ptr, ptr %2, align 8
  %4 = getelementptr inbounds nuw %"class.std::__cxx11::basic_string", ptr %3, i32 0, i32 0
  ret ptr %4
}

; Function Attrs: mustprogress nounwind uwtable
define available_externally noundef i64 @_ZNKSt7__cxx1112basic_stringIcSt11char_traitsIcESaIcEE4sizeEv(ptr noundef nonnull align 8 dereferenceable(32) %0) #1 align 2 {
  %2 = alloca ptr, align 8
  store ptr %0, ptr %2, align 8, !tbaa !8
  %3 = load ptr, ptr %2, align 8
  %4 = getelementptr inbounds nuw %"class.std::__cxx11::basic_string", ptr %3, i32 0, i32 1
  %5 = load i64, ptr %4, align 8, !tbaa !18
  ret i64 %5
}

; Function Attrs: mustprogress nounwind uwtable
define available_externally noundef i64 @_ZNKSt7__cxx1112basic_stringIcSt11char_traitsIcESaIcEE8max_sizeEv(ptr noundef nonnull align 8 dereferenceable(32) %0) #1 align 2 {
  %2 = alloca ptr, align 8
  store ptr %0, ptr %2, align 8, !tbaa !8
  %3 = load ptr, ptr %2, align 8
  %4 = call noundef nonnull align 1 dereferenceable(1) ptr @_ZNKSt7__cxx1112basic_stringIcSt11char_traitsIcESaIcEE16_M_get_allocatorEv(ptr noundef nonnull align 8 dereferenceable(32) %3)
  %5 = call noundef i64 @_ZNSt16allocator_traitsISaIcEE8max_sizeERKS0_(ptr noundef nonnull align 1 dereferenceable(1) %4) #15
  %6 = sub i64 %5, 1
  %7 = udiv i64 %6, 2
  ret i64 %7
}

; Function Attrs: mustprogress uwtable
define available_externally void @_ZNKSt7__cxx1112basic_stringIcSt11char_traitsIcESaIcEE15_M_check_lengthEmmPKc(ptr noundef nonnull align 8 dereferenceable(32) %0, i64 noundef %1, i64 noundef %2, ptr noundef %3) #0 align 2 {
  %5 = alloca ptr, align 8
  %6 = alloca i64, align 8
  %7 = alloca i64, align 8
  %8 = alloca ptr, align 8
  store ptr %0, ptr %5, align 8, !tbaa !8
  store i64 %1, ptr %6, align 8, !tbaa !14
  store i64 %2, ptr %7, align 8, !tbaa !14
  store ptr %3, ptr %8, align 8, !tbaa !12
  %9 = load ptr, ptr %5, align 8
  %10 = call noundef i64 @_ZNKSt7__cxx1112basic_stringIcSt11char_traitsIcESaIcEE8max_sizeEv(ptr noundef nonnull align 8 dereferenceable(32) %9) #15
  %11 = call noundef i64 @_ZNKSt7__cxx1112basic_stringIcSt11char_traitsIcESaIcEE4sizeEv(ptr noundef nonnull align 8 dereferenceable(32) %9) #15
  %12 = load i64, ptr %6, align 8, !tbaa !14
  %13 = sub i64 %11, %12
  %14 = sub i64 %10, %13
  %15 = load i64, ptr %7, align 8, !tbaa !14
  %16 = icmp ult i64 %14, %15
  br i1 %16, label %17, label %19

17:                                               ; preds = %4
  %18 = load ptr, ptr %8, align 8, !tbaa !12
  call void @_ZSt20__throw_length_errorPKc(ptr noundef %18) #19
  unreachable

19:                                               ; preds = %4
  ret void
}

; Function Attrs: mustprogress uwtable
define available_externally noundef nonnull align 8 dereferenceable(32) ptr @_ZNSt7__cxx1112basic_stringIcSt11char_traitsIcESaIcEE6appendEPKcm(ptr noundef nonnull align 8 dereferenceable(32) %0, ptr noundef %1, i64 noundef %2) #0 align 2 {
  %4 = alloca ptr, align 8
  %5 = alloca ptr, align 8
  %6 = alloca i64, align 8
  store ptr %0, ptr %4, align 8, !tbaa !8
  store ptr %1, ptr %5, align 8, !tbaa !12
  store i64 %2, ptr %6, align 8, !tbaa !14
  %7 = load ptr, ptr %4, align 8
  %8 = load i64, ptr %6, align 8, !tbaa !14
  call void @_ZNKSt7__cxx1112basic_stringIcSt11char_traitsIcESaIcEE15_M_check_lengthEmmPKc(ptr noundef nonnull align 8 dereferenceable(32) %7, i64 noundef 0, i64 noundef %8, ptr noundef @.str.11)
  %9 = load ptr, ptr %5, align 8, !tbaa !12
  %10 = load i64, ptr %6, align 8, !tbaa !14
  %11 = call noundef nonnull align 8 dereferenceable(32) ptr @_ZNSt7__cxx1112basic_stringIcSt11char_traitsIcESaIcEE9_M_appendEPKcm(ptr noundef nonnull align 8 dereferenceable(32) %7, ptr noundef %9, i64 noundef %10)
  ret ptr %11
}

; Function Attrs: mustprogress uwtable
define hidden void @_ZN5zxing6qrcode22DecodedBitStreamParser6appendERNSt7__cxx1112basic_stringIcSt11char_traitsIcESaIcEEEPKcmRNS_12ErrorHandlerE(ptr noundef nonnull align 8 dereferenceable(32) %0, ptr noundef nonnull align 8 dereferenceable(32) %1, ptr noundef %2, i64 noundef %3, ptr noundef nonnull align 8 dereferenceable(48) %4) #0 align 2 {
  %6 = alloca ptr, align 8
  %7 = alloca ptr, align 8
  %8 = alloca ptr, align 8
  %9 = alloca i64, align 8
  %10 = alloca ptr, align 8
  store ptr %0, ptr %6, align 8, !tbaa !3
  store ptr %1, ptr %7, align 8, !tbaa !8
  store ptr %2, ptr %8, align 8, !tbaa !12
  store i64 %3, ptr %9, align 8, !tbaa !14
  store ptr %4, ptr %10, align 8, !tbaa !10
  %11 = load ptr, ptr %10, align 8, !tbaa !10
  %12 = load ptr, ptr %11, align 8, !tbaa !16
  %13 = getelementptr inbounds ptr, ptr %12, i64 2
  %14 = load ptr, ptr %13, align 8
  %15 = call noundef i32 %14(ptr noundef nonnull align 8 dereferenceable(48) %11)
  %16 = icmp ne i32 %15, 0
  br i1 %16, label %20, label %17

17:                                               ; preds = %5
  %18 = load ptr, ptr %8, align 8, !tbaa !12
  %19 = icmp eq ptr %18, null
  br i1 %19, label %20, label %21

20:                                               ; preds = %17, %5
  br label %26

21:                                               ; preds = %17
  %22 = load ptr, ptr %7, align 8, !tbaa !8
  %23 = load ptr, ptr %8, align 8, !tbaa !12
  %24 = load i64, ptr %9, align 8, !tbaa !14
  %25 = call noundef nonnull align 8 dereferenceable(32) ptr @_ZNSt7__cxx1112basic_stringIcSt11char_traitsIcESaIcEE6appendEPKcm(ptr noundef nonnull align 8 dereferenceable(32) %22, ptr noundef %23, i64 noundef %24)
  br label %26

26:                                               ; preds = %21, %20
  ret void
}

; Function Attrs: mustprogress nounwind uwtable
define linkonce_odr hidden noundef ptr @_ZNK5zxing3RefINS_9BitSourceEEptEv(ptr noundef nonnull align 8 dereferenceable(8) %0) #1 comdat align 2 {
  %2 = alloca ptr, align 8
  store ptr %0, ptr %2, align 8, !tbaa !21
  %3 = load ptr, ptr %2, align 8
  %4 = getelementptr inbounds nuw %"class.zxing::Ref", ptr %3, i32 0, i32 0
  %5 = load ptr, ptr %4, align 8, !tbaa !30
  ret ptr %5
}

; Function Attrs: mustprogress uwtable
define hidden void @_ZN5zxing6qrcode22DecodedBitStreamParser18decodeKanjiSegmentENS_3RefINS_9BitSourceEEERNSt7__cxx1112basic_stringIcSt11char_traitsIcESaIcEEEiRNS_12ErrorHandlerE(ptr noundef nonnull align 8 dereferenceable(32) %0, ptr noundef %1, ptr noundef nonnull align 8 dereferenceable(32) %2, i32 noundef %3, ptr noundef nonnull align 8 dereferenceable(48) %4) #0 align 2 {
  %6 = alloca ptr, align 8
  %7 = alloca ptr, align 8
  %8 = alloca ptr, align 8
  %9 = alloca i32, align 4
  %10 = alloca ptr, align 8
  %11 = alloca i64, align 8
  %12 = alloca ptr, align 8
  %13 = alloca i32, align 4
  %14 = alloca i32, align 4
  %15 = alloca i32, align 4
  %16 = alloca i32, align 4
  store ptr %0, ptr %6, align 8, !tbaa !3
  store ptr %1, ptr %7, align 8, !tbaa !21
  store ptr %2, ptr %8, align 8, !tbaa !8
  store i32 %3, ptr %9, align 4, !tbaa !23
  store ptr %4, ptr %10, align 8, !tbaa !10
  %17 = load ptr, ptr %6, align 8
  call void @llvm.lifetime.start.p0(i64 8, ptr %11) #15
  %18 = load i32, ptr %9, align 4, !tbaa !23
  %19 = mul nsw i32 2, %18
  %20 = sext i32 %19 to i64
  store i64 %20, ptr %11, align 8, !tbaa !14
  call void @llvm.lifetime.start.p0(i64 8, ptr %12) #15
  %21 = load i64, ptr %11, align 8, !tbaa !14
  %22 = call noalias noundef nonnull ptr @_Znam(i64 noundef %21) #17
  store ptr %22, ptr %12, align 8, !tbaa !12
  call void @llvm.lifetime.start.p0(i64 4, ptr %13) #15
  store i32 0, ptr %13, align 4, !tbaa !23
  br label %23

23:                                               ; preds = %73, %5
  %24 = load i32, ptr %9, align 4, !tbaa !23
  %25 = icmp sgt i32 %24, 0
  br i1 %25, label %26, label %74

26:                                               ; preds = %23
  call void @llvm.lifetime.start.p0(i64 4, ptr %14) #15
  %27 = call noundef ptr @_ZNK5zxing3RefINS_9BitSourceEEptEv(ptr noundef nonnull align 8 dereferenceable(8) %1)
  %28 = load ptr, ptr %10, align 8, !tbaa !10
  %29 = call noundef i32 @_ZN5zxing9BitSource8readBitsEiRNS_12ErrorHandlerE(ptr noundef nonnull align 8 dereferenceable(48) %27, i32 noundef 13, ptr noundef nonnull align 8 dereferenceable(48) %28)
  store i32 %29, ptr %14, align 4, !tbaa !23
  %30 = load ptr, ptr %10, align 8, !tbaa !10
  %31 = load ptr, ptr %30, align 8, !tbaa !16
  %32 = getelementptr inbounds ptr, ptr %31, i64 2
  %33 = load ptr, ptr %32, align 8
  %34 = call noundef i32 %33(ptr noundef nonnull align 8 dereferenceable(48) %30)
  %35 = icmp ne i32 %34, 0
  br i1 %35, label %36, label %37

36:                                               ; preds = %26
  store i32 1, ptr %15, align 4
  br label %71

37:                                               ; preds = %26
  call void @llvm.lifetime.start.p0(i64 4, ptr %16) #15
  %38 = load i32, ptr %14, align 4, !tbaa !23
  %39 = sdiv i32 %38, 192
  %40 = shl i32 %39, 8
  %41 = load i32, ptr %14, align 4, !tbaa !23
  %42 = srem i32 %41, 192
  %43 = or i32 %40, %42
  store i32 %43, ptr %16, align 4, !tbaa !23
  %44 = load i32, ptr %16, align 4, !tbaa !23
  %45 = icmp slt i32 %44, 7936
  br i1 %45, label %46, label %49

46:                                               ; preds = %37
  %47 = load i32, ptr %16, align 4, !tbaa !23
  %48 = add nsw i32 %47, 33088
  store i32 %48, ptr %16, align 4, !tbaa !23
  br label %52

49:                                               ; preds = %37
  %50 = load i32, ptr %16, align 4, !tbaa !23
  %51 = add nsw i32 %50, 49472
  store i32 %51, ptr %16, align 4, !tbaa !23
  br label %52

52:                                               ; preds = %49, %46
  %53 = load i32, ptr %16, align 4, !tbaa !23
  %54 = ashr i32 %53, 8
  %55 = trunc i32 %54 to i8
  %56 = load ptr, ptr %12, align 8, !tbaa !12
  %57 = load i32, ptr %13, align 4, !tbaa !23
  %58 = sext i32 %57 to i64
  %59 = getelementptr inbounds i8, ptr %56, i64 %58
  store i8 %55, ptr %59, align 1, !tbaa !27
  %60 = load i32, ptr %16, align 4, !tbaa !23
  %61 = trunc i32 %60 to i8
  %62 = load ptr, ptr %12, align 8, !tbaa !12
  %63 = load i32, ptr %13, align 4, !tbaa !23
  %64 = add nsw i32 %63, 1
  %65 = sext i32 %64 to i64
  %66 = getelementptr inbounds i8, ptr %62, i64 %65
  store i8 %61, ptr %66, align 1, !tbaa !27
  %67 = load i32, ptr %13, align 4, !tbaa !23
  %68 = add nsw i32 %67, 2
  store i32 %68, ptr %13, align 4, !tbaa !23
  %69 = load i32, ptr %9, align 4, !tbaa !23
  %70 = add nsw i32 %69, -1
  store i32 %70, ptr %9, align 4, !tbaa !23
  call void @llvm.lifetime.end.p0(i64 4, ptr %16) #15
  store i32 0, ptr %15, align 4
  br label %71

71:                                               ; preds = %52, %36
  call void @llvm.lifetime.end.p0(i64 4, ptr %14) #15
  %72 = load i32, ptr %15, align 4
  switch i32 %72, label %95 [
    i32 0, label %73
  ]

73:                                               ; preds = %71
  br label %23, !llvm.loop !34

74:                                               ; preds = %23
  %75 = load ptr, ptr %8, align 8, !tbaa !8
  %76 = load ptr, ptr %12, align 8, !tbaa !12
  %77 = load i64, ptr %11, align 8, !tbaa !14
  %78 = load ptr, ptr %10, align 8, !tbaa !10
  call void @_ZN5zxing6qrcode22DecodedBitStreamParser6appendERNSt7__cxx1112basic_stringIcSt11char_traitsIcESaIcEEEPKcmRNS_12ErrorHandlerE(ptr noundef nonnull align 8 dereferenceable(32) %17, ptr noundef nonnull align 8 dereferenceable(32) %75, ptr noundef %76, i64 noundef %77, ptr noundef nonnull align 8 dereferenceable(48) %78)
  %79 = load ptr, ptr %10, align 8, !tbaa !10
  %80 = load ptr, ptr %79, align 8, !tbaa !16
  %81 = getelementptr inbounds ptr, ptr %80, i64 2
  %82 = load ptr, ptr %81, align 8
  %83 = call noundef i32 %82(ptr noundef nonnull align 8 dereferenceable(48) %79)
  %84 = icmp ne i32 %83, 0
  br i1 %84, label %85, label %90

85:                                               ; preds = %74
  %86 = load ptr, ptr %12, align 8, !tbaa !12
  %87 = icmp eq ptr %86, null
  br i1 %87, label %89, label %88

88:                                               ; preds = %85
  call void @_ZdaPv(ptr noundef %86) #18
  br label %89

89:                                               ; preds = %88, %85
  store i32 1, ptr %15, align 4
  br label %95

90:                                               ; preds = %74
  %91 = load ptr, ptr %12, align 8, !tbaa !12
  %92 = icmp eq ptr %91, null
  br i1 %92, label %94, label %93

93:                                               ; preds = %90
  call void @_ZdaPv(ptr noundef %91) #18
  br label %94

94:                                               ; preds = %93, %90
  store i32 0, ptr %15, align 4
  br label %95

95:                                               ; preds = %94, %89, %71
  call void @llvm.lifetime.end.p0(i64 4, ptr %13) #15
  call void @llvm.lifetime.end.p0(i64 8, ptr %12) #15
  call void @llvm.lifetime.end.p0(i64 8, ptr %11) #15
  %96 = load i32, ptr %15, align 4
  switch i32 %96, label %98 [
    i32 0, label %97
    i32 1, label %97
  ]

97:                                               ; preds = %95, %95
  ret void

98:                                               ; preds = %95
  unreachable
}