; Function Attrs: mustprogress uwtable
define hidden void @_ZN5zxing6qrcode22DecodedBitStreamParser18decodeKanjiSegmentENS_3RefINS_9BitSourceEEERNSt7__cxx1112basic_stringIcSt11char_traitsIcESaIcEEEiRNS_12ErrorHandlerE(ptr nonnull readnone align 8 captures(none) %0, ptr noundef readonly captures(none) %1, ptr noundef nonnull align 8 dereferenceable(32) %2, i32 noundef %3, ptr noundef nonnull align 8 dereferenceable(48) %4) local_unnamed_addr #0 align 2 {
  %6 = shl nsw i32 %3, 1
  %7 = sext i32 %6 to i64
  %8 = tail call noalias noundef nonnull ptr @_Znam(i64 noundef %7) #18
  %9 = icmp sgt i32 %3, 0
  br i1 %9, label %.lr.ph, label %._crit_edge

.lr.ph:                                           ; preds = %5, %16
  %indvars.iv = phi i64 [ %indvars.iv.next, %16 ], [ 0, %5 ]
  %.02736 = phi i32 [ %27, %16 ], [ %3, %5 ]
  %10 = load ptr, ptr %1, align 8, !tbaa !14
  %11 = tail call noundef i32 @_ZN5zxing9BitSource8readBitsEiRNS_12ErrorHandlerE(ptr noundef nonnull align 8 dereferenceable(48) %10, i32 noundef 13, ptr noundef nonnull align 8 dereferenceable(48) %4)
  %12 = load ptr, ptr %4, align 8, !tbaa !12
  %13 = getelementptr inbounds nuw i8, ptr %12, i64 16
  %14 = load ptr, ptr %13, align 8
  %15 = tail call noundef i32 %14(ptr noundef nonnull align 8 dereferenceable(48) %4)
  %.not32 = icmp eq i32 %15, 0
  br i1 %.not32, label %16, label %.thread

16:                                               ; preds = %.lr.ph
  %17 = sdiv i32 %11, 192
  %18 = shl i32 %17, 8
  %19 = srem i32 %11, 192
  %20 = or i32 %18, %19
  %21 = icmp slt i32 %20, 7936
  %.0.v = select i1 %21, i32 33088, i32 49472
  %.0 = add nsw i32 %.0.v, %20
  %22 = lshr i32 %.0, 8
  %23 = trunc i32 %22 to i8
  %24 = getelementptr inbounds nuw i8, ptr %8, i64 %indvars.iv
  store i8 %23, ptr %24, align 1, !tbaa !20
  %25 = trunc i32 %.0 to i8
  %26 = getelementptr i8, ptr %24, i64 1
  store i8 %25, ptr %26, align 1, !tbaa !20
  %indvars.iv.next = add nuw nsw i64 %indvars.iv, 2
  %27 = add nsw i32 %.02736, -1
  %28 = icmp sgt i32 %.02736, 1
  br i1 %28, label %.lr.ph, label %._crit_edge, !llvm.loop !23

._crit_edge:                                      ; preds = %16, %5
  %29 = load ptr, ptr %4, align 8, !tbaa !12
  %30 = getelementptr inbounds nuw i8, ptr %29, i64 16
  %31 = load ptr, ptr %30, align 8
  %32 = tail call noundef i32 %31(ptr noundef nonnull align 8 dereferenceable(48) %4)
  %.not = icmp eq i32 %32, 0
  br i1 %.not, label %33, label %_ZN5zxing6qrcode22DecodedBitStreamParser6appendERNSt7__cxx1112basic_stringIcSt11char_traitsIcESaIcEEEPKcmRNS_12ErrorHandlerE.exit

33:                                               ; preds = %._crit_edge
  %34 = getelementptr inbounds nuw i8, ptr %2, i64 8
  %35 = load i64, ptr %34, align 8, !tbaa !11
  %36 = sub i64 4611686018427387903, %35
  %37 = icmp ult i64 %36, %7
  br i1 %37, label %38, label %_ZNSt7__cxx1112basic_stringIcSt11char_traitsIcESaIcEE6appendEPKcm.exit.i

38:                                               ; preds = %33
  tail call void @_ZSt20__throw_length_errorPKc(ptr noundef nonnull @.str.11) #15
  unreachable

_ZNSt7__cxx1112basic_stringIcSt11char_traitsIcESaIcEE6appendEPKcm.exit.i: ; preds = %33
  %39 = tail call noundef nonnull align 8 dereferenceable(32) ptr @_ZNSt7__cxx1112basic_stringIcSt11char_traitsIcESaIcEE9_M_appendEPKcm(ptr noundef nonnull align 8 dereferenceable(32) %2, ptr noundef nonnull %8, i64 noundef %7)
  br label %_ZN5zxing6qrcode22DecodedBitStreamParser6appendERNSt7__cxx1112basic_stringIcSt11char_traitsIcESaIcEEEPKcmRNS_12ErrorHandlerE.exit

_ZN5zxing6qrcode22DecodedBitStreamParser6appendERNSt7__cxx1112basic_stringIcSt11char_traitsIcESaIcEEEPKcmRNS_12ErrorHandlerE.exit: ; preds = %._crit_edge, %_ZNSt7__cxx1112basic_stringIcSt11char_traitsIcESaIcEE6appendEPKcm.exit.i
  %40 = load ptr, ptr %4, align 8, !tbaa !12
  %41 = getelementptr inbounds nuw i8, ptr %40, i64 16
  %42 = load ptr, ptr %41, align 8
  %43 = tail call noundef i32 %42(ptr noundef nonnull align 8 dereferenceable(48) %4)
  tail call void @_ZdaPv(ptr noundef nonnull %8) #17
  br label %.thread

.thread:                                          ; preds = %.lr.ph, %_ZN5zxing6qrcode22DecodedBitStreamParser6appendERNSt7__cxx1112basic_stringIcSt11char_traitsIcESaIcEEEPKcmRNS_12ErrorHandlerE.exit
  ret void
}